target datalayout = "e-m:e-p270:32:32-p271:32:32-p272:64:64-i64:64-i128:128-f80:128-n8:16:32:64-S128"
target triple = "x86_64-pc-linux-gnu"

@_ZN24ctx_propagate_assertionsC1ER11ast_manager = hidden unnamed_addr alias void (ptr, ptr), ptr @_ZN24ctx_propagate_assertionsC2ER11ast_manager

; Function Attrs: mustprogress uwtable
define hidden noundef ptr @_ZN24ctx_propagate_assertions9translateER11ast_manager(ptr noundef nonnull align 8 dereferenceable(72) %0, ptr noundef nonnull align 8 dereferenceable(976) %1) unnamed_addr #4 align 2 {
  %3 = alloca ptr, align 8
  %4 = alloca ptr, align 8
  store ptr %0, ptr %3, align 8, !tbaa !3
  store ptr %1, ptr %4, align 8, !tbaa !8
  %5 = call noalias noundef ptr @_ZN6memory8allocateEm(i64 noundef 72)
  %6 = load ptr, ptr %4, align 8, !tbaa !8
  call void @_ZN24ctx_propagate_assertionsC1ER11ast_manager(ptr noundef nonnull align 8 dereferenceable(72) %5, ptr noundef nonnull align 8 dereferenceable(976) %6)
  ret ptr %5
}