; Function Attrs: mustprogress uwtable
define hidden noalias noundef ptr @_ZN24ctx_propagate_assertions9translateER11ast_manager(ptr nonnull readnone align 8 captures(none) %0, ptr noundef nonnull align 8 dereferenceable(976) %1) unnamed_addr #3 align 2 personality ptr @__gxx_personality_v0 {
  %3 = tail call noalias noundef ptr @_ZN6memory8allocateEm(i64 noundef 72)
  store ptr getelementptr inbounds nuw inrange(-16, 72) (i8, ptr @_ZTV24ctx_propagate_assertions, i64 16), ptr %3, align 8, !tbaa !3
  %4 = getelementptr inbounds nuw i8, ptr %3, i64 16
  store ptr %1, ptr %4, align 8, !tbaa !6
  %5 = getelementptr inbounds nuw i8, ptr %3, i64 24
  %6 = tail call noalias noundef ptr @_ZN6memory8allocateEm(i64 noundef 128)
  tail call void @llvm.memset.p0.i64(ptr noundef nonnull align 8 dereferenceable(128) %6, i8 0, i64 128, i1 false)
  store ptr %6, ptr %5, align 8, !tbaa !10
  %7 = getelementptr inbounds nuw i8, ptr %3, i64 32
  store i32 8, ptr %7, align 8, !tbaa !14
  %8 = getelementptr inbounds nuw i8, ptr %3, i64 36
  store i32 0, ptr %8, align 4, !tbaa !15
  %9 = getelementptr inbounds nuw i8, ptr %3, i64 40
  store i32 0, ptr %9, align 8, !tbaa !16
  %10 = getelementptr inbounds nuw i8, ptr %3, i64 48
  %11 = ptrtoint ptr %1 to i64
  store i64 %11, ptr %10, align 8, !tbaa !6
  %12 = getelementptr inbounds nuw i8, ptr %3, i64 56
  tail call void @llvm.memset.p0.i64(ptr noundef nonnull align 8 dereferenceable(16) %12, i8 0, i64 16, i1 false)
  ret ptr %3
}